; Function Attrs: mustprogress uwtable
define noundef double @_Z20get_pull_coord_valueP6pull_tiRK5t_pbc(ptr noundef readonly captures(none) %0, i32 noundef %1, ptr noundef nonnull align 4 dereferenceable(384) %2) local_unnamed_addr #4 {
  %4 = getelementptr inbounds nuw i8, ptr %0, i64 80
  %5 = load i8, ptr %4, align 8, !tbaa !127, !range !73, !noundef !74
  %6 = trunc nuw i8 %5 to i1
  br i1 %6, label %7, label %8

7:                                                ; preds = %3
  tail call void @_ZN3gmx8internal13assertHandlerEPKcS2_S2_S2_i(ptr noundef nonnull @.str.14, ptr noundef nonnull @.str.15, ptr noundef nonnull @"__PRETTY_FUNCTION__._ZZ20get_pull_coord_valueP6pull_tiRK5t_pbcENK3$_0clEv", ptr noundef nonnull @.str.9, i32 noundef 814) #29
  unreachable

8:                                                ; preds = %3
  %9 = getelementptr inbounds nuw i8, ptr %0, i64 128
  %10 = sext i32 %1 to i64
  %11 = load ptr, ptr %9, align 8, !tbaa !86
  %12 = getelementptr inbounds nuw %struct.pull_coord_work_t, ptr %11, i64 %10
  tail call fastcc void @_ZL23get_pull_coord_distanceRK6pull_tP17pull_coord_work_tRK5t_pbcd(ptr noundef nonnull align 8 dereferenceable(340) %0, ptr noundef %12, ptr noundef nonnull align 4 dereferenceable(384) %2, double noundef 0.000000e+00)
  %13 = load ptr, ptr %9, align 8, !tbaa !86
  %14 = getelementptr inbounds nuw %struct.pull_coord_work_t, ptr %13, i64 %10, i32 3, i32 9
  %15 = load double, ptr %14, align 8, !tbaa !89
  ret double %15
}